target datalayout = "e-m:e-p270:32:32-p271:32:32-p272:64:64-i64:64-i128:128-f80:128-n8:16:32:64-S128"
target triple = "x86_64-pc-linux-gnu"

%struct.rb_data_type_struct = type { ptr, %struct.anon, ptr, ptr, i64 }
%struct.anon = type { ptr, ptr, ptr, ptr, [1 x ptr] }

@cEC_POINT = internal global i64 0, align 8
@eEC_GROUP = internal global i64 0, align 8
@eEC_POINT = internal global i64 0, align 8
@id_i_group = internal global i64 0, align 8
@ossl_ec_group_type = internal constant %struct.rb_data_type_struct { ptr @.str.61, %struct.anon { ptr null, ptr @ossl_ec_group_free, ptr null, ptr null, [1 x ptr] zeroinitializer }, ptr null, ptr null, i64 33 }, align 8
@.str.59 = private unnamed_addr constant [28 x i8] c"EC_GROUP is not initialized\00", align 1
@ossl_ec_point_type = internal constant %struct.rb_data_type_struct { ptr @.str.87, %struct.anon { ptr null, ptr @ossl_ec_point_free, ptr null, ptr null, [1 x ptr] zeroinitializer }, ptr null, ptr null, i64 33 }, align 8
@.str.85 = private unnamed_addr constant [28 x i8] c"EC_POINT is not initialized\00", align 1
@.str.109 = private unnamed_addr constant [13 x i8] c"EC_POINT_add\00", align 1

; Function Attrs: nounwind sspstrong uwtable
define internal i64 @ossl_ec_point_add(i64 noundef %0, i64 noundef %1) #0 {
  %3 = alloca i64, align 8
  %4 = alloca i64, align 8
  %5 = alloca ptr, align 8
  %6 = alloca ptr, align 8
  %7 = alloca ptr, align 8
  %8 = alloca ptr, align 8
  %9 = alloca i64, align 8
  %10 = alloca i64, align 8
  store i64 %0, ptr %3, align 8, !tbaa !6
  store i64 %1, ptr %4, align 8, !tbaa !6
  call void @llvm.lifetime.start.p0(i64 8, ptr %5) #19
  call void @llvm.lifetime.start.p0(i64 8, ptr %6) #19
  call void @llvm.lifetime.start.p0(i64 8, ptr %7) #19
  call void @llvm.lifetime.start.p0(i64 8, ptr %8) #19
  call void @llvm.lifetime.start.p0(i64 8, ptr %9) #19
  %11 = load i64, ptr %3, align 8, !tbaa !6
  %12 = load i64, ptr @id_i_group, align 8, !tbaa !6
  %13 = call i64 @rb_attr_get(i64 noundef %11, i64 noundef %12)
  store i64 %13, ptr %9, align 8, !tbaa !6
  call void @llvm.lifetime.start.p0(i64 8, ptr %10) #19
  br label %14

14:                                               ; preds = %2
  %15 = load i64, ptr %3, align 8, !tbaa !6
  %16 = call ptr @rb_check_typeddata(i64 noundef %15, ptr noundef @ossl_ec_point_type)
  store ptr %16, ptr %5, align 8, !tbaa !37
  %17 = load ptr, ptr %5, align 8, !tbaa !37
  %18 = icmp eq ptr %17, null
  br i1 %18, label %19, label %21

19:                                               ; preds = %14
  %20 = load i64, ptr @eEC_POINT, align 8, !tbaa !6
  call void (i64, ptr, ...) @ossl_raise(i64 noundef %20, ptr noundef @.str.85) #20
  unreachable

21:                                               ; preds = %14
  br label %22

22:                                               ; preds = %21
  br label %23

23:                                               ; preds = %22
  br label %24

24:                                               ; preds = %23
  %25 = load i64, ptr %4, align 8, !tbaa !6
  %26 = call ptr @rb_check_typeddata(i64 noundef %25, ptr noundef @ossl_ec_point_type)
  store ptr %26, ptr %6, align 8, !tbaa !37
  %27 = load ptr, ptr %6, align 8, !tbaa !37
  %28 = icmp eq ptr %27, null
  br i1 %28, label %29, label %31

29:                                               ; preds = %24
  %30 = load i64, ptr @eEC_POINT, align 8, !tbaa !6
  call void (i64, ptr, ...) @ossl_raise(i64 noundef %30, ptr noundef @.str.85) #20
  unreachable

31:                                               ; preds = %24
  br label %32

32:                                               ; preds = %31
  br label %33

33:                                               ; preds = %32
  br label %34

34:                                               ; preds = %33
  %35 = load i64, ptr %9, align 8, !tbaa !6
  %36 = call ptr @rb_check_typeddata(i64 noundef %35, ptr noundef @ossl_ec_group_type)
  store ptr %36, ptr %8, align 8, !tbaa !33
  %37 = load ptr, ptr %8, align 8, !tbaa !33
  %38 = icmp eq ptr %37, null
  br i1 %38, label %39, label %41

39:                                               ; preds = %34
  %40 = load i64, ptr @eEC_GROUP, align 8, !tbaa !6
  call void (i64, ptr, ...) @ossl_raise(i64 noundef %40, ptr noundef @.str.59) #20
  unreachable

41:                                               ; preds = %34
  br label %42

42:                                               ; preds = %41
  br label %43

43:                                               ; preds = %42
  %44 = load i64, ptr @cEC_POINT, align 8, !tbaa !6
  %45 = call i64 @rb_obj_alloc(i64 noundef %44)
  store i64 %45, ptr %10, align 8, !tbaa !6
  %46 = load i64, ptr %10, align 8, !tbaa !6
  %47 = call i64 @ossl_ec_point_initialize(i32 noundef 1, ptr noundef %9, i64 noundef %46)
  br label %48

48:                                               ; preds = %43
  %49 = load i64, ptr %10, align 8, !tbaa !6
  %50 = call ptr @rb_check_typeddata(i64 noundef %49, ptr noundef @ossl_ec_point_type)
  store ptr %50, ptr %7, align 8, !tbaa !37
  %51 = load ptr, ptr %7, align 8, !tbaa !37
  %52 = icmp eq ptr %51, null
  br i1 %52, label %53, label %55

53:                                               ; preds = %48
  %54 = load i64, ptr @eEC_POINT, align 8, !tbaa !6
  call void (i64, ptr, ...) @ossl_raise(i64 noundef %54, ptr noundef @.str.85) #20
  unreachable

55:                                               ; preds = %48
  br label %56

56:                                               ; preds = %55
  br label %57

57:                                               ; preds = %56
  %58 = load ptr, ptr %8, align 8, !tbaa !33
  %59 = load ptr, ptr %7, align 8, !tbaa !37
  %60 = load ptr, ptr %5, align 8, !tbaa !37
  %61 = load ptr, ptr %6, align 8, !tbaa !37
  %62 = call ptr @ossl_bn_ctx_get()
  %63 = call i32 @EC_POINT_add(ptr noundef %58, ptr noundef %59, ptr noundef %60, ptr noundef %61, ptr noundef %62)
  %64 = icmp ne i32 %63, 1
  br i1 %64, label %65, label %67

65:                                               ; preds = %57
  %66 = load i64, ptr @eEC_POINT, align 8, !tbaa !6
  call void (i64, ptr, ...) @ossl_raise(i64 noundef %66, ptr noundef @.str.109) #20
  unreachable

67:                                               ; preds = %57
  %68 = load i64, ptr %10, align 8, !tbaa !6
  call void @llvm.lifetime.end.p0(i64 8, ptr %10) #19
  call void @llvm.lifetime.end.p0(i64 8, ptr %9) #19
  call void @llvm.lifetime.end.p0(i64 8, ptr %8) #19
  call void @llvm.lifetime.end.p0(i64 8, ptr %7) #19
  call void @llvm.lifetime.end.p0(i64 8, ptr %6) #19
  call void @llvm.lifetime.end.p0(i64 8, ptr %5) #19
  ret i64 %68
}