; Function Attrs: nounwind sspstrong uwtable
define internal noundef i64 @ossl_ec_point_add(i64 noundef %0, i64 noundef %1) #0 {
  %3 = alloca i64, align 8
  call void @llvm.lifetime.start.p0(i64 8, ptr nonnull %3) #7
  %4 = load i64, ptr @id_i_group, align 8, !tbaa !6
  %5 = tail call i64 @rb_attr_get(i64 noundef %0, i64 noundef %4) #7
  store i64 %5, ptr %3, align 8, !tbaa !6
  %6 = tail call ptr @rb_check_typeddata(i64 noundef %0, ptr noundef nonnull @ossl_ec_point_type) #7
  %7 = icmp eq ptr %6, null
  br i1 %7, label %8, label %10

8:                                                ; preds = %2
  %9 = load i64, ptr @eEC_POINT, align 8, !tbaa !6
  tail call void (i64, ptr, ...) @ossl_raise(i64 noundef %9, ptr noundef nonnull @.str.85) #9
  unreachable

10:                                               ; preds = %2
  %11 = tail call ptr @rb_check_typeddata(i64 noundef %1, ptr noundef nonnull @ossl_ec_point_type) #7
  %12 = icmp eq ptr %11, null
  br i1 %12, label %13, label %15

13:                                               ; preds = %10
  %14 = load i64, ptr @eEC_POINT, align 8, !tbaa !6
  tail call void (i64, ptr, ...) @ossl_raise(i64 noundef %14, ptr noundef nonnull @.str.85) #9
  unreachable

15:                                               ; preds = %10
  %16 = tail call ptr @rb_check_typeddata(i64 noundef %5, ptr noundef nonnull @ossl_ec_group_type) #7
  %17 = icmp eq ptr %16, null
  br i1 %17, label %18, label %20

18:                                               ; preds = %15
  %19 = load i64, ptr @eEC_GROUP, align 8, !tbaa !6
  tail call void (i64, ptr, ...) @ossl_raise(i64 noundef %19, ptr noundef nonnull @.str.59) #9
  unreachable

20:                                               ; preds = %15
  %21 = load i64, ptr @cEC_POINT, align 8, !tbaa !6
  %22 = tail call i64 @rb_obj_alloc(i64 noundef %21) #7
  %23 = call i64 @ossl_ec_point_initialize(i32 noundef 1, ptr noundef nonnull %3, i64 noundef %22)
  %24 = tail call ptr @rb_check_typeddata(i64 noundef %22, ptr noundef nonnull @ossl_ec_point_type) #7
  %25 = icmp eq ptr %24, null
  br i1 %25, label %26, label %28

26:                                               ; preds = %20
  %27 = load i64, ptr @eEC_POINT, align 8, !tbaa !6
  tail call void (i64, ptr, ...) @ossl_raise(i64 noundef %27, ptr noundef nonnull @.str.85) #9
  unreachable

28:                                               ; preds = %20
  %29 = tail call ptr @ossl_bn_ctx_get() #7
  %30 = tail call i32 @EC_POINT_add(ptr noundef nonnull %16, ptr noundef nonnull %24, ptr noundef nonnull %6, ptr noundef nonnull %11, ptr noundef %29) #7
  %.not = icmp eq i32 %30, 1
  br i1 %.not, label %33, label %31

31:                                               ; preds = %28
  %32 = load i64, ptr @eEC_POINT, align 8, !tbaa !6
  tail call void (i64, ptr, ...) @ossl_raise(i64 noundef %32, ptr noundef nonnull @.str.109) #9
  unreachable

33:                                               ; preds = %28
  call void @llvm.lifetime.end.p0(i64 8, ptr nonnull %3) #7
  ret i64 %22
}